	.section	__TEXT,__text,regular,pure_instructions
	.macosx_version_min 10, 12
	.globl	_sub_proc
	.p2align	4, 0x90
_sub_proc:                              ## @sub_proc
	.cfi_startproc
## BB#0:
	pushq	%rbp
Ltmp0:
	.cfi_def_cfa_offset 16
Ltmp1:
	.cfi_offset %rbp, -16
	movq	%rsp, %rbp
Ltmp2:
	.cfi_def_cfa_register %rbp
	subq	$16, %rsp
	leaq	L_.str(%rip), %rdi
	movb	$0, %al
	callq	_printf
	movl	$1, %edi
	movl	%eax, -4(%rbp)          ## 4-byte Spill
	callq	_exit
	.cfi_endproc

	.globl	_testproc
	.p2align	4, 0x90
_testproc:                              ## @testproc
	.cfi_startproc
## BB#0:
	pushq	%rbp
Ltmp3:
	.cfi_def_cfa_offset 16
Ltmp4:
	.cfi_offset %rbp, -16
	movq	%rsp, %rbp
Ltmp5:
	.cfi_def_cfa_register %rbp
	leaq	_sub_proc(%rip), %rax
	movl	%eax, %ecx
	movl	%ecx, 4(%rbp)
	popq	%rbp
	retq
	.cfi_endproc

	.globl	_main
	.p2align	4, 0x90
_main:                                  ## @main
	.cfi_startproc
## BB#0:
	pushq	%rbp
Ltmp6:
	.cfi_def_cfa_offset 16
Ltmp7:
	.cfi_offset %rbp, -16
	movq	%rsp, %rbp
Ltmp8:
	.cfi_def_cfa_register %rbp
	callq	_testproc
	xorl	%eax, %eax
	popq	%rbp
	retq
	.cfi_endproc

	.section	__TEXT,__cstring,cstring_literals
L_.str:                                 ## @.str
	.asciz	"Hello sub_proc()\n"


.subsections_via_symbols
